target datalayout = "e-m:e-p270:32:32-p271:32:32-p272:64:64-i64:64-i128:128-f80:128-n8:16:32:64-S128"
target triple = "x86_64-pc-linux-gnu"

%struct.RealCommandRunner = type { %struct.CommandRunner, ptr, %struct.SubprocessSet, %"class.std::map" }
%struct.CommandRunner = type { ptr }
%struct.SubprocessSet = type { %"class.std::vector.0", %"class.std::queue", %struct.sigaction, %struct.sigaction, %struct.sigaction, %struct.__sigset_t }
%"class.std::vector.0" = type { %"struct.std::_Vector_base.1" }
%"struct.std::_Vector_base.1" = type { %"struct.std::_Vector_base<Subprocess *, std::allocator<Subprocess *>>::_Vector_impl" }
%"struct.std::_Vector_base<Subprocess *, std::allocator<Subprocess *>>::_Vector_impl" = type { %"struct.std::_Vector_base<Subprocess *, std::allocator<Subprocess *>>::_Vector_impl_data" }
%"struct.std::_Vector_base<Subprocess *, std::allocator<Subprocess *>>::_Vector_impl_data" = type { ptr, ptr, ptr }
%"class.std::queue" = type { %"class.std::deque" }
%"class.std::deque" = type { %"class.std::_Deque_base" }
%"class.std::_Deque_base" = type { %"struct.std::_Deque_base<Subprocess *, std::allocator<Subprocess *>>::_Deque_impl" }
%"struct.std::_Deque_base<Subprocess *, std::allocator<Subprocess *>>::_Deque_impl" = type { %"struct.std::_Deque_base<Subprocess *, std::allocator<Subprocess *>>::_Deque_impl_data" }
%"struct.std::_Deque_base<Subprocess *, std::allocator<Subprocess *>>::_Deque_impl_data" = type { ptr, i64, %"struct.std::_Deque_iterator", %"struct.std::_Deque_iterator" }
%"struct.std::_Deque_iterator" = type { ptr, ptr, ptr, ptr }
%struct.sigaction = type { %union.anon, %struct.__sigset_t, i32, ptr }
%union.anon = type { ptr }
%struct.__sigset_t = type { [16 x i64] }
%"class.std::map" = type { %"class.std::_Rb_tree" }
%"class.std::_Rb_tree" = type { %"struct.std::_Rb_tree<const Subprocess *, std::pair<const Subprocess *const, Edge *>, std::_Select1st<std::pair<const Subprocess *const, Edge *>>, std::less<const Subprocess *>>::_Rb_tree_impl" }
%"struct.std::_Rb_tree<const Subprocess *, std::pair<const Subprocess *const, Edge *>, std::_Select1st<std::pair<const Subprocess *const, Edge *>>, std::less<const Subprocess *>>::_Rb_tree_impl" = type { [8 x i8], %"struct.std::_Rb_tree_header" }
%"struct.std::_Rb_tree_header" = type { %"struct.std::_Rb_tree_node_base", i64 }
%"struct.std::_Rb_tree_node_base" = type { i32, ptr, ptr, ptr }

; Function Attrs: noinline noreturn nounwind uwtable
define linkonce_odr hidden void @__clang_call_terminate(ptr noundef %0) #11 comdat {
  %2 = call ptr @__cxa_begin_catch(ptr %0) #16
  call void @_ZSt9terminatev() #18
  unreachable
}

; Function Attrs: mustprogress nounwind uwtable
define linkonce_odr dso_local void @_ZNSt15_Rb_tree_header8_M_resetEv(ptr noundef nonnull align 8 dereferenceable(40) %0) #1 comdat align 2 {
  %2 = alloca ptr, align 8
  store ptr %0, ptr %2, align 8, !tbaa !125
  %3 = load ptr, ptr %2, align 8
  %4 = getelementptr inbounds nuw %"struct.std::_Rb_tree_header", ptr %3, i32 0, i32 0
  %5 = getelementptr inbounds nuw %"struct.std::_Rb_tree_node_base", ptr %4, i32 0, i32 1
  store ptr null, ptr %5, align 8, !tbaa !130
  %6 = getelementptr inbounds nuw %"struct.std::_Rb_tree_header", ptr %3, i32 0, i32 0
  %7 = getelementptr inbounds nuw %"struct.std::_Rb_tree_header", ptr %3, i32 0, i32 0
  %8 = getelementptr inbounds nuw %"struct.std::_Rb_tree_node_base", ptr %7, i32 0, i32 2
  store ptr %6, ptr %8, align 8, !tbaa !131
  %9 = getelementptr inbounds nuw %"struct.std::_Rb_tree_header", ptr %3, i32 0, i32 0
  %10 = getelementptr inbounds nuw %"struct.std::_Rb_tree_header", ptr %3, i32 0, i32 0
  %11 = getelementptr inbounds nuw %"struct.std::_Rb_tree_node_base", ptr %10, i32 0, i32 3
  store ptr %9, ptr %11, align 8, !tbaa !132
  %12 = getelementptr inbounds nuw %"struct.std::_Rb_tree_header", ptr %3, i32 0, i32 1
  store i64 0, ptr %12, align 8, !tbaa !133
  ret void
}

; Function Attrs: mustprogress nounwind uwtable
define linkonce_odr dso_local void @_ZNSt15__new_allocatorISt13_Rb_tree_nodeISt4pairIKPK10SubprocessP4EdgeEEEC2Ev(ptr noundef nonnull align 1 dereferenceable(1) %0) unnamed_addr #1 comdat align 2 {
  %2 = alloca ptr, align 8
  store ptr %0, ptr %2, align 8, !tbaa !128
  ret void
}

; Function Attrs: mustprogress nounwind uwtable
define linkonce_odr dso_local void @_ZNSt15_Rb_tree_headerC2Ev(ptr noundef nonnull align 8 dereferenceable(40) %0) unnamed_addr #1 comdat align 2 personality ptr @__gxx_personality_v0 {
  %2 = alloca ptr, align 8
  store ptr %0, ptr %2, align 8, !tbaa !125
  %3 = load ptr, ptr %2, align 8
  %4 = getelementptr inbounds nuw %"struct.std::_Rb_tree_header", ptr %3, i32 0, i32 0
  %5 = getelementptr inbounds nuw %"struct.std::_Rb_tree_node_base", ptr %4, i32 0, i32 0
  store i32 0, ptr %5, align 8, !tbaa !127
  invoke void @_ZNSt15_Rb_tree_header8_M_resetEv(ptr noundef nonnull align 8 dereferenceable(40) %3)
          to label %6 unwind label %7

6:                                                ; preds = %1
  ret void

7:                                                ; preds = %1
  %8 = landingpad { ptr, i32 }
          catch ptr null
  %9 = extractvalue { ptr, i32 } %8, 0
  call void @__clang_call_terminate(ptr %9) #18
  unreachable
}

; Function Attrs: mustprogress nounwind uwtable
define linkonce_odr dso_local void @_ZNSt20_Rb_tree_key_compareISt4lessIPK10SubprocessEEC2Ev(ptr noundef nonnull align 1 dereferenceable(1) %0) unnamed_addr #1 comdat align 2 {
  %2 = alloca ptr, align 8
  store ptr %0, ptr %2, align 8, !tbaa !123
  ret void
}

; Function Attrs: mustprogress nounwind uwtable
define linkonce_odr dso_local void @_ZNSaISt13_Rb_tree_nodeISt4pairIKPK10SubprocessP4EdgeEEEC2Ev(ptr noundef nonnull align 1 dereferenceable(1) %0) unnamed_addr #1 comdat align 2 {
  %2 = alloca ptr, align 8
  store ptr %0, ptr %2, align 8, !tbaa !121
  %3 = load ptr, ptr %2, align 8
  call void @_ZNSt15__new_allocatorISt13_Rb_tree_nodeISt4pairIKPK10SubprocessP4EdgeEEEC2Ev(ptr noundef nonnull align 1 dereferenceable(1) %3) #16
  ret void
}

; Function Attrs: mustprogress nounwind uwtable
define linkonce_odr dso_local void @_ZNSt8_Rb_treeIPK10SubprocessSt4pairIKS2_P4EdgeESt10_Select1stIS7_ESt4lessIS2_ESaIS7_EE13_Rb_tree_implISB_Lb1EEC2Ev(ptr noundef nonnull align 8 dereferenceable(48) %0) unnamed_addr #1 comdat align 2 {
  %2 = alloca ptr, align 8
  store ptr %0, ptr %2, align 8, !tbaa !119
  %3 = load ptr, ptr %2, align 8
  call void @_ZNSaISt13_Rb_tree_nodeISt4pairIKPK10SubprocessP4EdgeEEEC2Ev(ptr noundef nonnull align 1 dereferenceable(1) %3) #16
  call void @_ZNSt20_Rb_tree_key_compareISt4lessIPK10SubprocessEEC2Ev(ptr noundef nonnull align 1 dereferenceable(1) %3) #16
  %4 = getelementptr inbounds i8, ptr %3, i64 8
  call void @_ZNSt15_Rb_tree_headerC2Ev(ptr noundef nonnull align 8 dereferenceable(40) %4) #16
  ret void
}

; Function Attrs: mustprogress nounwind uwtable
define linkonce_odr dso_local void @_ZNSt8_Rb_treeIPK10SubprocessSt4pairIKS2_P4EdgeESt10_Select1stIS7_ESt4lessIS2_ESaIS7_EEC2Ev(ptr noundef nonnull align 8 dereferenceable(48) %0) unnamed_addr #1 comdat align 2 {
  %2 = alloca ptr, align 8
  store ptr %0, ptr %2, align 8, !tbaa !117
  %3 = load ptr, ptr %2, align 8
  %4 = getelementptr inbounds nuw %"class.std::_Rb_tree", ptr %3, i32 0, i32 0
  call void @_ZNSt8_Rb_treeIPK10SubprocessSt4pairIKS2_P4EdgeESt10_Select1stIS7_ESt4lessIS2_ESaIS7_EE13_Rb_tree_implISB_Lb1EEC2Ev(ptr noundef nonnull align 8 dereferenceable(48) %4) #16
  ret void
}

; Function Attrs: mustprogress nounwind uwtable
define linkonce_odr dso_local void @_ZN13CommandRunnerD2Ev(ptr noundef nonnull align 8 dereferenceable(8) %0) unnamed_addr #1 comdat align 2 {
  %2 = alloca ptr, align 8
  store ptr %0, ptr %2, align 8, !tbaa !115
  ret void
}

; Function Attrs: mustprogress nounwind uwtable
define linkonce_odr dso_local void @_ZNSt3mapIPK10SubprocessP4EdgeSt4lessIS2_ESaISt4pairIKS2_S4_EEEC2Ev(ptr noundef nonnull align 8 dereferenceable(48) %0) unnamed_addr #1 comdat align 2 {
  %2 = alloca ptr, align 8
  store ptr %0, ptr %2, align 8, !tbaa !13
  %3 = load ptr, ptr %2, align 8
  %4 = getelementptr inbounds nuw %"class.std::map", ptr %3, i32 0, i32 0
  call void @_ZNSt8_Rb_treeIPK10SubprocessSt4pairIKS2_P4EdgeESt10_Select1stIS7_ESt4lessIS2_ESaIS7_EEC2Ev(ptr noundef nonnull align 8 dereferenceable(48) %4) #16
  ret void
}

; Function Attrs: inlinehint mustprogress nounwind uwtable
define linkonce_odr dso_local void @_ZN13CommandRunnerC2Ev(ptr noundef nonnull align 8 dereferenceable(8) %0) unnamed_addr #8 comdat align 2 {
  %2 = alloca ptr, align 8
  store ptr %0, ptr %2, align 8, !tbaa !115
  %3 = load ptr, ptr %2, align 8
  store ptr getelementptr inbounds inrange(-16, 56) ({ [9 x ptr] }, ptr @_ZTV13CommandRunner, i32 0, i32 0, i32 2), ptr %3, align 8, !tbaa !100
  ret void
}

; Function Attrs: mustprogress uwtable
define linkonce_odr dso_local void @_ZN17RealCommandRunnerC2ERK11BuildConfig(ptr noundef nonnull align 8 dereferenceable(752) %0, ptr noundef nonnull align 8 dereferenceable(25) %1) unnamed_addr #0 comdat align 2 personality ptr @__gxx_personality_v0 {
  %3 = alloca ptr, align 8
  %4 = alloca ptr, align 8
  %5 = alloca ptr, align 8
  %6 = alloca i32, align 4
  store ptr %0, ptr %3, align 8, !tbaa !4
  store ptr %1, ptr %4, align 8, !tbaa !99
  %7 = load ptr, ptr %3, align 8
  call void @_ZN13CommandRunnerC2Ev(ptr noundef nonnull align 8 dereferenceable(8) %7) #16
  store ptr getelementptr inbounds inrange(-16, 56) ({ [9 x ptr] }, ptr @_ZTV17RealCommandRunner, i32 0, i32 0, i32 2), ptr %7, align 8, !tbaa !100
  %8 = getelementptr inbounds nuw %struct.RealCommandRunner, ptr %7, i32 0, i32 1
  %9 = load ptr, ptr %4, align 8, !tbaa !99
  store ptr %9, ptr %8, align 8, !tbaa !99
  %10 = getelementptr inbounds nuw %struct.RealCommandRunner, ptr %7, i32 0, i32 2
  invoke void @_ZN13SubprocessSetC1Ev(ptr noundef nonnull align 8 dereferenceable(688) %10)
          to label %11 unwind label %13

11:                                               ; preds = %2
  %12 = getelementptr inbounds nuw %struct.RealCommandRunner, ptr %7, i32 0, i32 3
  call void @_ZNSt3mapIPK10SubprocessP4EdgeSt4lessIS2_ESaISt4pairIKS2_S4_EEEC2Ev(ptr noundef nonnull align 8 dereferenceable(48) %12) #16
  ret void

13:                                               ; preds = %2
  %14 = landingpad { ptr, i32 }
          cleanup
  %15 = extractvalue { ptr, i32 } %14, 0
  store ptr %15, ptr %5, align 8
  %16 = extractvalue { ptr, i32 } %14, 1
  store i32 %16, ptr %6, align 4
  call void @_ZN13CommandRunnerD2Ev(ptr noundef nonnull align 8 dereferenceable(8) %7) #16
  br label %17

17:                                               ; preds = %13
  %18 = load ptr, ptr %5, align 8
  %19 = load i32, ptr %6, align 4
  %20 = insertvalue { ptr, i32 } poison, ptr %18, 0
  %21 = insertvalue { ptr, i32 } %20, i32 %19, 1
  resume { ptr, i32 } %21
}

; Function Attrs: mustprogress uwtable
define dso_local noundef ptr @_ZN13CommandRunner7factoryERK11BuildConfig(ptr noundef nonnull align 8 dereferenceable(25) %0) #0 align 2 personality ptr @__gxx_personality_v0 {
  %2 = alloca ptr, align 8
  %3 = alloca ptr, align 8
  %4 = alloca i32, align 4
  store ptr %0, ptr %2, align 8, !tbaa !99
  %5 = call noalias noundef nonnull ptr @_Znwm(i64 noundef 752) #20
  %6 = load ptr, ptr %2, align 8, !tbaa !99
  invoke void @_ZN17RealCommandRunnerC2ERK11BuildConfig(ptr noundef nonnull align 8 dereferenceable(752) %5, ptr noundef nonnull align 8 dereferenceable(25) %6)
          to label %7 unwind label %8

7:                                                ; preds = %1
  ret ptr %5

8:                                                ; preds = %1
  %9 = landingpad { ptr, i32 }
          cleanup
  %10 = extractvalue { ptr, i32 } %9, 0
  store ptr %10, ptr %3, align 8
  %11 = extractvalue { ptr, i32 } %9, 1
  store i32 %11, ptr %4, align 4
  call void @_ZdlPvm(ptr noundef %5, i64 noundef 752) #19
  br label %12

12:                                               ; preds = %8
  %13 = load ptr, ptr %3, align 8
  %14 = load i32, ptr %4, align 4
  %15 = insertvalue { ptr, i32 } poison, ptr %13, 0
  %16 = insertvalue { ptr, i32 } %15, i32 %14, 1
  resume { ptr, i32 } %16
}