; Function Attrs: mustprogress uwtable
define dso_local noundef nonnull ptr @_ZN13CommandRunner7factoryERK11BuildConfig(ptr noundef nonnull align 8 dereferenceable(25) %0) local_unnamed_addr #0 align 2 personality ptr @__gxx_personality_v0 {
  %2 = tail call noalias noundef nonnull dereferenceable(752) ptr @_Znwm(i64 noundef 752) #16
  store ptr getelementptr inbounds nuw inrange(-16, 56) (i8, ptr @_ZTV17RealCommandRunner, i64 16), ptr %2, align 8, !tbaa !81
  %3 = getelementptr inbounds nuw i8, ptr %2, i64 8
  store ptr %0, ptr %3, align 8, !tbaa !83
  %4 = getelementptr inbounds nuw i8, ptr %2, i64 16
  invoke void @_ZN13SubprocessSetC1Ev(ptr noundef nonnull align 8 dereferenceable(688) %4)
          to label %5 unwind label %11

5:                                                ; preds = %1
  %6 = getelementptr inbounds nuw i8, ptr %2, i64 712
  store i32 0, ptr %6, align 8, !tbaa !84
  %7 = getelementptr inbounds nuw i8, ptr %2, i64 720
  store ptr null, ptr %7, align 8, !tbaa !61
  %8 = getelementptr inbounds nuw i8, ptr %2, i64 728
  store ptr %6, ptr %8, align 8, !tbaa !4
  %9 = getelementptr inbounds nuw i8, ptr %2, i64 736
  store ptr %6, ptr %9, align 8, !tbaa !85
  %10 = getelementptr inbounds nuw i8, ptr %2, i64 744
  store i64 0, ptr %10, align 8, !tbaa !69
  ret ptr %2

11:                                               ; preds = %1
  %12 = landingpad { ptr, i32 }
          cleanup
  tail call void @_ZdlPvm(ptr noundef nonnull %2, i64 noundef 752) #17
  resume { ptr, i32 } %12
}